Certificate Request:
    Data:
        Version: 0 (0x0)
        Subject: C=US, ST=California, L=San Diego, O=EnterpriseDB, OU=Support, CN=edb-support/emailAddress=support@enterprisedb.com
        Subject Public Key Info:
            Public Key Algorithm: rsaEncryption
                Public-Key: (2048 bit)
                Modulus:
                    00:ce:ce:2e:6e:b9:b0:39:19:b8:2a:45:7b:5c:80:
                    da:25:47:9a:64:ff:4b:85:de:02:60:22:8e:e0:54:
                    41:61:02:6c:ce:eb:f2:24:06:93:5b:4d:f4:52:a2:
                    46:8a:ce:55:7a:02:b9:94:2a:11:53:19:f0:b1:66:
                    84:79:c1:71:34:1f:f7:b7:73:19:c5:66:4c:b1:62:
                    09:e7:54:86:33:53:26:14:7b:3b:c3:6e:d2:21:a0:
                    56:e6:bd:b7:62:dc:68:89:52:ed:0f:e3:c8:63:a4:
                    60:f1:8f:8c:4d:24:18:95:01:ee:b0:8a:c3:45:53:
                    22:ff:d2:77:40:ca:c5:cf:91:a1:d2:36:7d:ac:c3:
                    96:ee:6d:bd:a5:3f:6d:4a:2b:44:a8:bd:28:b5:75:
                    a0:91:29:68:b0:94:f4:0a:29:c3:9a:07:88:4d:50:
                    04:f8:5d:20:34:de:b4:38:ba:9e:17:f0:6c:ba:54:
                    76:65:c4:d7:e9:60:01:d2:4f:98:e3:e4:de:dd:b6:
                    a3:8d:72:c4:31:51:8b:1f:46:03:4e:c7:10:65:a6:
                    47:c0:84:2e:d8:12:08:2e:f7:1f:de:3a:a7:10:9c:
                    23:90:3b:78:d4:a5:e6:24:2d:1b:5b:17:5f:74:a3:
                    3c:ce:42:85:48:41:ec:9f:85:f6:02:c5:c4:e0:a1:
                    80:1b
                Exponent: 65537 (0x10001)
        Attributes:
            challengePassword        :unable to print attribute
            unstructuredName         :unable to print attribute
    Signature Algorithm: sha1WithRSAEncryption
         ba:3d:0c:39:ab:c2:eb:fc:33:97:61:79:05:1f:e3:5d:66:03:
         55:58:a5:43:e0:e4:04:37:f4:93:90:e3:d6:03:82:3f:72:58:
         63:87:15:94:c8:11:bc:7d:3e:1f:cd:b1:b8:9c:e3:1b:72:7f:
         1d:30:05:c2:c4:c9:ab:0d:20:f1:19:27:aa:d4:79:b4:92:99:
         dc:0a:e3:fb:00:51:aa:1e:07:08:ea:c6:0e:6b:4c:be:39:d8:
         c5:5e:32:4e:d1:9d:93:56:0d:0d:f8:cc:74:73:ff:18:2d:dc:
         2e:07:db:51:c4:b2:cd:3c:b2:6a:00:79:e9:ee:d4:0b:f1:44:
         6e:64:c4:ce:6e:56:d6:0c:81:59:75:2a:5d:88:f7:4d:49:53:
         b9:6a:c3:3b:2a:93:c3:a5:23:50:19:2f:52:af:ce:74:ef:a5:
         b1:91:7c:4d:07:41:94:1b:ca:4c:0f:7e:8f:2f:74:40:78:6b:
         c9:15:de:81:ed:00:9e:43:13:71:27:ca:a4:58:33:c2:55:0d:
         2a:73:6d:62:cf:c1:05:44:e1:b0:80:8e:c4:f5:e1:7c:b7:79:
         db:c4:78:86:54:39:b1:2a:1f:07:69:e4:8b:17:df:7f:b6:4c:
         c9:8d:ca:44:b5:52:59:47:df:45:8c:73:a5:bb:d0:20:74:9e:
         2a:22:1d:89
-----BEGIN CERTIFICATE REQUEST-----
MIIDGDCCAgACAQAwgZ4xCzAJBgNVBAYTAlVTMRMwEQYDVQQIDApDYWxpZm9ybmlh
MRIwEAYDVQQHDAlTYW4gRGllZ28xFTATBgNVBAoMDEVudGVycHJpc2VEQjEQMA4G
A1UECwwHU3VwcG9ydDEUMBIGA1UEAwwLZWRiLXN1cHBvcnQxJzAlBgkqhkiG9w0B
CQEWGHN1cHBvcnRAZW50ZXJwcmlzZWRiLmNvbTCCASIwDQYJKoZIhvcNAQEBBQAD
ggEPADCCAQoCggEBAM7OLm65sDkZuCpFe1yA2iVHmmT/S4XeAmAijuBUQWECbM7r
8iQGk1tN9FKiRorOVXoCuZQqEVMZ8LFmhHnBcTQf97dzGcVmTLFiCedUhjNTJhR7
O8Nu0iGgVua9t2LcaIlS7Q/jyGOkYPGPjE0kGJUB7rCKw0VTIv/Sd0DKxc+RodI2
fazDlu5tvaU/bUorRKi9KLV1oJEpaLCU9Aopw5oHiE1QBPhdIDTetDi6nhfwbLpU
dmXE1+lgAdJPmOPk3t22o41yxDFRix9GA07HEGWmR8CELtgSCC73H946pxCcI5A7
eNSl5iQtG1sXX3SjPM5ChUhB7J+F9gLFxOChgBsCAwEAAaA0MBUGCSqGSIb3DQEJ
BzEIDAZhYmMxMjMwGwYJKoZIhvcNAQkCMQ4MDEVudGVycHJpc2VEQjANBgkqhkiG
9w0BAQUFAAOCAQEAuj0MOavC6/wzl2F5BR/jXWYDVVilQ+DkBDf0k5Dj1gOCP3JY
Y4cVlMgRvH0+H82xuJzjG3J/HTAFwsTJqw0g8RknqtR5tJKZ3Arj+wBRqh4HCOrG
DmtMvjnYxV4yTtGdk1YNDfjMdHP/GC3cLgfbUcSyzTyyagB56e7UC/FEbmTEzm5W
1gyBWXUqXYj3TUlTuWrDOyqTw6UjUBkvUq/OdO+lsZF8TQdBlBvKTA9+jy90QHhr
yRXege0AnkMTcSfKpFgzwlUNKnNtYs/BBUThsICOxPXhfLd528R4hlQ5sSofB2nk
ixfff7ZMyY3KRLVSWUffRYxzpbvQIHSeKiIdiQ==
-----END CERTIFICATE REQUEST-----
